Certificate:
    Data:
        Version: 3 (0x2)
        Serial Number:
            5e:85:d7:15:d3:14:86:73:c3:1c:9c:fc:e6:32:96:e8:65:8e:98:64
        Signature Algorithm: sha256WithRSAEncryption
        Issuer: C=fr, ST=Ile-de-France, O=Example Corp, CN=Example Corp
        Validity
            Not Before: Dec 20 07:57:07 2023 GMT
            Not After : Dec 19 07:57:07 2024 GMT
        Subject: C=fr, ST=Ile-de-France, L=Paris, O=Example Corp, CN=Example Corp
        Subject Public Key Info:
            Public Key Algorithm: rsaEncryption
                Public-Key: (2048 bit)
                Modulus:
                    00:c5:9e:88:a6:d1:89:30:6a:05:04:93:d1:af:b1:
                    7f:f3:d9:bd:ef:23:26:35:85:fd:d7:b7:89:71:5a:
                    f5:54:02:cf:ae:50:a2:22:e5:d3:21:f6:09:52:18:
                    d4:62:e9:97:0b:7f:9d:f6:2f:01:35:2a:8b:fa:2b:
                    88:9b:5e:23:ca:af:4d:dc:33:4d:d1:87:fd:5e:17:
                    09:4b:84:b5:1f:71:74:31:b6:de:2a:75:eb:36:a6:
                    2a:5d:7f:d0:46:44:53:fa:c0:86:02:7a:8e:2e:50:
                    72:92:d0:f3:51:8e:b4:b2:ae:5e:3f:03:01:da:2e:
                    47:07:95:42:be:59:d0:1b:07:a0:3b:3a:da:f8:04:
                    f6:ff:44:59:e6:30:14:77:ae:0a:1a:15:a3:08:99:
                    8a:1e:0b:46:76:4a:60:36:58:a8:76:c0:28:49:07:
                    58:ea:a2:e3:f7:c3:eb:83:7c:a7:22:0a:2e:10:b9:
                    5d:f2:5d:a1:26:af:2c:91:bb:dc:82:e6:b7:c2:de:
                    c7:04:d9:49:f1:0c:77:10:ff:50:39:58:da:a1:5c:
                    48:29:0b:de:7c:dd:06:6a:6d:6c:8a:dc:17:82:6c:
                    2a:9d:1b:33:c0:89:13:9a:59:6b:39:52:5d:ea:9d:
                    75:1e:03:cc:d6:cc:e5:0f:40:b6:67:dc:f4:3a:b4:
                    15:cf
                Exponent: 65537 (0x10001)
        X509v3 extensions:
            X509v3 Basic Constraints: 
                CA:FALSE
            X509v3 Subject Key Identifier: 
                2F:5F:03:2B:05:0D:D4:65:D1:EC:1C:A8:50:16:67:C3:79:F1:28:A6
            X509v3 Authority Key Identifier: 
                B0:36:19:85:CF:4E:AA:01:1A:B3:3C:5A:D1:44:E1:85:30:65:AE:7C
    Signature Algorithm: sha256WithRSAEncryption
    Signature Value:
        91:0f:5a:52:2f:54:c8:5e:2d:18:11:14:18:98:ef:e7:cc:76:
        82:b5:c1:83:fe:d2:4e:54:7d:e3:b1:f1:7b:5b:77:1d:37:ee:
        3b:42:08:c1:b2:88:39:ec:9c:3c:3e:32:a9:52:27:de:24:4a:
        c0:8a:d6:7f:ae:e4:a2:ee:91:bc:1c:e5:28:6c:d0:02:05:b7:
        9c:2d:d0:18:fd:59:61:26:4c:66:1b:b0:d8:0c:be:8a:e9:5c:
        8b:8f:a6:22:17:b7:90:f7:0b:60:18:2f:09:7b:16:13:9e:cb:
        e3:c8:2c:20:4b:c6:19:95:9c:85:58:9c:3b:44:55:3d:e7:b4:
        e3:a3:df:30:d2:bb:a0:21:25:33:5b:be:31:84:87:8a:b5:58:
        b6:2b:45:3d:bd:46:9c:16:04:c7:93:4f:35:58:00:90:ff:39:
        4a:91:91:5f:f0:8e:60:c9:1b:89:7b:3f:63:ac:fc:30:73:57:
        06:18:9b:0a:fe:6b:92:d2:5a:31:5a:6e:39:b7:03:ca:45:a3:
        73:c0:37:e6:bf:6b:f8:c8:35:04:27:d3:71:be:f6:31:62:d7:
        70:03:4a:69:ea:91:79:e7:ef:c4:96:95:17:d4:c5:fd:9b:28:
        33:67:40:dc:32:ea:93:fb:45:85:08:8d:b8:38:8e:75:90:62:
        01:ae:f0:cc
-----BEGIN CERTIFICATE-----
MIIDkTCCAnmgAwIBAgIUXoXXFdMUhnPDHJz85jKW6GWOmGQwDQYJKoZIhvcNAQEL
BQAwUzELMAkGA1UEBhMCZnIxFjAUBgNVBAgMDUlsZS1kZS1GcmFuY2UxFTATBgNV
BAoMDEV4YW1wbGUgQ29ycDEVMBMGA1UEAwwMRXhhbXBsZSBDb3JwMB4XDTIzMTIy
MDA3NTcwN1oXDTI0MTIxOTA3NTcwN1owYzELMAkGA1UEBhMCZnIxFjAUBgNVBAgM
DUlsZS1kZS1GcmFuY2UxDjAMBgNVBAcMBVBhcmlzMRUwEwYDVQQKDAxFeGFtcGxl
IENvcnAxFTATBgNVBAMMDEV4YW1wbGUgQ29ycDCCASIwDQYJKoZIhvcNAQEBBQAD
ggEPADCCAQoCggEBAMWeiKbRiTBqBQST0a+xf/PZve8jJjWF/de3iXFa9VQCz65Q
oiLl0yH2CVIY1GLplwt/nfYvATUqi/oriJteI8qvTdwzTdGH/V4XCUuEtR9xdDG2
3ip16zamKl1/0EZEU/rAhgJ6ji5QcpLQ81GOtLKuXj8DAdouRweVQr5Z0BsHoDs6
2vgE9v9EWeYwFHeuChoVowiZih4LRnZKYDZYqHbAKEkHWOqi4/fD64N8pyIKLhC5
XfJdoSavLJG73ILmt8LexwTZSfEMdxD/UDlY2qFcSCkL3nzdBmptbIrcF4JsKp0b
M8CJE5pZazlSXeqddR4DzNbM5Q9Atmfc9Dq0Fc8CAwEAAaNNMEswCQYDVR0TBAIw
ADAdBgNVHQ4EFgQUL18DKwUN1GXR7ByoUBZnw3nxKKYwHwYDVR0jBBgwFoAUsDYZ
hc9OqgEaszxa0UThhTBlrnwwDQYJKoZIhvcNAQELBQADggEBAJEPWlIvVMheLRgR
FBiY7+fMdoK1wYP+0k5UfeOx8Xtbdx037jtCCMGyiDnsnDw+MqlSJ94kSsCK1n+u
5KLukbwc5Shs0AIFt5wt0Bj9WWEmTGYbsNgMvorpXIuPpiIXt5D3C2AYLwl7FhOe
y+PILCBLxhmVnIVYnDtEVT3ntOOj3zDSu6AhJTNbvjGEh4q1WLYrRT29RpwWBMeT
TzVYAJD/OUqRkV/wjmDJG4l7P2Os/DBzVwYYmwr+a5LSWjFabjm3A8pFo3PAN+a/
a/jINQQn03G+9jFi13ADSmnqkXnn78SWlRfUxf2bKDNnQNwy6pP7RYUIjbg4jnWQ
YgGu8Mw=
-----END CERTIFICATE-----
