Certificate:
    Data:
        Version: 3 (0x2)
        Serial Number:
            5e:85:d7:15:d3:14:86:73:c3:1c:9c:fc:e6:32:96:e8:65:8e:98:63
        Signature Algorithm: sha256WithRSAEncryption
        Issuer: C=fr, ST=Ile-de-France, O=Example Corp, CN=Example Corp
        Validity
            Not Before: Dec 20 07:56:19 2023 GMT
            Not After : Dec 19 07:56:19 2026 GMT
        Subject: C=fr, ST=Ile-de-France, O=Example Corp, CN=Example Corp
        Subject Public Key Info:
            Public Key Algorithm: rsaEncryption
                Public-Key: (2048 bit)
                Modulus:
                    00:aa:25:64:cd:7c:c7:cb:ce:22:30:86:3d:3c:48:
                    9d:23:8f:a8:4e:e7:94:71:71:a5:a4:0c:b4:ed:6e:
                    18:36:4a:eb:58:51:80:53:0c:5d:d4:00:80:4b:af:
                    c7:52:31:90:09:a8:2f:2a:85:55:35:88:9d:f2:17:
                    81:c6:30:29:d5:6e:c1:de:95:a1:a8:8d:05:17:0d:
                    3d:17:b1:56:7b:5f:1f:40:33:3d:67:a6:ac:7e:70:
                    dc:da:b3:a5:a8:c2:be:e9:64:de:d5:5a:c7:9d:e4:
                    65:2d:64:da:e4:2c:1b:f0:c1:e6:29:9a:e7:66:12:
                    0e:a4:25:8c:fb:f6:76:b3:ff:12:71:11:97:0c:13:
                    78:82:9a:85:ae:5d:28:bd:94:55:d6:52:c0:9e:51:
                    e7:2a:a2:7b:2e:fa:42:e7:c3:bf:2a:f8:53:33:a2:
                    ff:a2:6f:89:2c:ba:5c:7b:90:5f:e3:aa:d4:e4:94:
                    a3:31:6d:06:8c:ee:a6:03:06:9c:7e:6c:0a:b5:be:
                    89:8b:a8:d9:ac:8c:b0:d1:e5:1e:c3:00:64:18:de:
                    79:39:98:bc:1e:47:03:25:0f:c7:66:9f:62:f0:1e:
                    7b:46:ec:80:27:8f:ba:34:78:df:e1:af:5f:3b:5b:
                    98:b9:0d:a5:2e:ed:fe:f3:f1:d9:8e:a9:5d:4c:d4:
                    8e:8f
                Exponent: 65537 (0x10001)
        X509v3 extensions:
            X509v3 Subject Key Identifier: 
                B0:36:19:85:CF:4E:AA:01:1A:B3:3C:5A:D1:44:E1:85:30:65:AE:7C
            X509v3 Authority Key Identifier: 
                B0:36:19:85:CF:4E:AA:01:1A:B3:3C:5A:D1:44:E1:85:30:65:AE:7C
            X509v3 Basic Constraints: critical
                CA:TRUE
    Signature Algorithm: sha256WithRSAEncryption
    Signature Value:
        14:80:b8:7e:eb:f9:65:9f:23:aa:7d:2e:65:0e:d8:07:8d:0f:
        0b:b9:b2:50:c6:2e:95:38:37:2f:63:f1:0b:5f:e0:c4:97:ef:
        c3:78:29:9e:b1:dc:a7:9c:b9:8d:7b:06:81:f1:5c:51:a0:8b:
        3d:17:0e:e1:e4:0c:8b:10:76:1b:e7:45:85:b8:58:5c:00:d0:
        4a:16:91:72:ec:47:9e:fe:1f:57:48:eb:41:41:1a:75:44:ab:
        18:a8:a9:18:8f:d0:3c:60:94:2b:ab:24:07:66:f6:7f:35:0e:
        e4:52:30:b3:7d:8a:d1:f7:50:75:21:10:7a:f1:7b:02:bc:3d:
        ea:a8:dc:db:80:3e:ec:5b:05:d3:63:22:8d:ec:e5:f3:4c:ea:
        5e:93:7d:c1:30:64:50:be:ed:fd:4d:0c:9c:7f:f5:e5:19:30:
        c4:ea:d8:fe:73:26:42:0c:89:99:e8:7a:ea:77:59:52:ff:37:
        ef:01:ca:70:6e:b6:11:d6:02:d0:5d:19:00:87:3a:17:df:de:
        fe:40:a5:3d:1d:32:ee:14:b3:f7:19:2d:79:8b:96:4b:3b:19:
        31:ff:10:d4:58:02:19:6b:83:7a:4b:d9:d0:74:70:6e:e9:88:
        a4:f5:7c:26:2e:a5:ee:4c:f3:5a:ad:cc:74:8d:75:c1:35:cc:
        40:21:fc:70
-----BEGIN CERTIFICATE-----
MIIDhzCCAm+gAwIBAgIUXoXXFdMUhnPDHJz85jKW6GWOmGMwDQYJKoZIhvcNAQEL
BQAwUzELMAkGA1UEBhMCZnIxFjAUBgNVBAgMDUlsZS1kZS1GcmFuY2UxFTATBgNV
BAoMDEV4YW1wbGUgQ29ycDEVMBMGA1UEAwwMRXhhbXBsZSBDb3JwMB4XDTIzMTIy
MDA3NTYxOVoXDTI2MTIxOTA3NTYxOVowUzELMAkGA1UEBhMCZnIxFjAUBgNVBAgM
DUlsZS1kZS1GcmFuY2UxFTATBgNVBAoMDEV4YW1wbGUgQ29ycDEVMBMGA1UEAwwM
RXhhbXBsZSBDb3JwMIIBIjANBgkqhkiG9w0BAQEFAAOCAQ8AMIIBCgKCAQEAqiVk
zXzHy84iMIY9PEidI4+oTueUcXGlpAy07W4YNkrrWFGAUwxd1ACAS6/HUjGQCagv
KoVVNYid8heBxjAp1W7B3pWhqI0FFw09F7FWe18fQDM9Z6asfnDc2rOlqMK+6WTe
1VrHneRlLWTa5Cwb8MHmKZrnZhIOpCWM+/Z2s/8ScRGXDBN4gpqFrl0ovZRV1lLA
nlHnKqJ7LvpC58O/KvhTM6L/om+JLLpce5Bf46rU5JSjMW0GjO6mAwacfmwKtb6J
i6jZrIyw0eUewwBkGN55OZi8HkcDJQ/HZp9i8B57RuyAJ4+6NHjf4a9fO1uYuQ2l
Lu3+8/HZjqldTNSOjwIDAQABo1MwUTAdBgNVHQ4EFgQUsDYZhc9OqgEaszxa0UTh
hTBlrnwwHwYDVR0jBBgwFoAUsDYZhc9OqgEaszxa0UThhTBlrnwwDwYDVR0TAQH/
BAUwAwEB/zANBgkqhkiG9w0BAQsFAAOCAQEAFIC4fuv5ZZ8jqn0uZQ7YB40PC7my
UMYulTg3L2PxC1/gxJfvw3gpnrHcp5y5jXsGgfFcUaCLPRcO4eQMixB2G+dFhbhY
XADQShaRcuxHnv4fV0jrQUEadUSrGKipGI/QPGCUK6skB2b2fzUO5FIws32K0fdQ
dSEQevF7Arw96qjc24A+7FsF02Mijezl80zqXpN9wTBkUL7t/U0MnH/15RkwxOrY
/nMmQgyJmeh66ndZUv837wHKcG62EdYC0F0ZAIc6F9/e/kClPR0y7hSz9xkteYuW
SzsZMf8Q1FgCGWuDekvZ0HRwbumIpPV8Ji6l7kzzWq3MdI11wTXMQCH8cA==
-----END CERTIFICATE-----
